; Function Attrs: nounwind uwtable
define dso_local range(i64 0, 2) i64 @pg_has_role_name_name(ptr noundef readonly captures(none) %0) local_unnamed_addr #0 {
  %2 = getelementptr inbounds nuw i8, ptr %0, i64 32
  %3 = load i64, ptr %2, align 8
  %4 = getelementptr inbounds nuw i8, ptr %0, i64 48
  %5 = load i64, ptr %4, align 8
  %6 = getelementptr inbounds nuw i8, ptr %0, i64 64
  %7 = load i64, ptr %6, align 8
  %8 = inttoptr i64 %7 to ptr
  %9 = tail call ptr @pg_detoast_datum_packed(ptr noundef %8) #14
  %10 = tail call i32 @GetSysCacheOid(i32 noundef 10, i16 noundef signext 1, i64 noundef %3, i64 noundef 0, i64 noundef 0, i64 noundef 0) #14
  %.not.i.not = icmp eq i32 %10, 0
  br i1 %.not.i.not, label %11, label %get_role_oid.exit

11:                                               ; preds = %1
  %12 = inttoptr i64 %3 to ptr
  %13 = tail call zeroext i1 @errstart_cold(i32 noundef 21, ptr noundef null) #15
  tail call void @llvm.assume(i1 %13)
  %14 = tail call i32 @errcode(i32 noundef 67137668) #14
  %15 = tail call i32 (ptr, ...) @errmsg(ptr noundef nonnull @.str.31, ptr noundef %12) #14
  tail call void @errfinish(ptr noundef nonnull @.str.1, i32 noundef 5563, ptr noundef nonnull @__func__.get_role_oid) #14
  unreachable

get_role_oid.exit:                                ; preds = %1
  %16 = tail call i32 @GetSysCacheOid(i32 noundef 10, i16 noundef signext 1, i64 noundef %5, i64 noundef 0, i64 noundef 0, i64 noundef 0) #14
  %.not.i9.not = icmp eq i32 %16, 0
  br i1 %.not.i9.not, label %17, label %get_role_oid.exit10

17:                                               ; preds = %get_role_oid.exit
  %18 = inttoptr i64 %5 to ptr
  %19 = tail call zeroext i1 @errstart_cold(i32 noundef 21, ptr noundef null) #15
  tail call void @llvm.assume(i1 %19)
  %20 = tail call i32 @errcode(i32 noundef 67137668) #14
  %21 = tail call i32 (ptr, ...) @errmsg(ptr noundef nonnull @.str.31, ptr noundef %18) #14
  tail call void @errfinish(ptr noundef nonnull @.str.1, i32 noundef 5563, ptr noundef nonnull @__func__.get_role_oid) #14
  unreachable

get_role_oid.exit10:                              ; preds = %get_role_oid.exit
  %22 = tail call fastcc i64 @convert_any_priv_string(ptr noundef %9, ptr noundef nonnull @convert_role_priv_string.role_priv_map)
  %23 = tail call fastcc i32 @pg_role_aclcheck(i32 noundef %16, i32 noundef %10, i64 noundef %22)
  %24 = xor i32 %23, 1
  %25 = zext nneg i32 %24 to i64
  ret i64 %25
}